target datalayout = "e-m:e-p270:32:32-p271:32:32-p272:64:64-i64:64-i128:128-f80:128-n8:16:32:64-S128"
target triple = "x86_64-pc-linux-gnu"

%struct.KDF_PBKDF1 = type { ptr, %struct.PROV_DIGEST, ptr, i64, ptr, i64, i64 }
%struct.PROV_DIGEST = type { ptr, ptr, ptr }

@.str = private unnamed_addr constant [51 x i8] c"../openssl/providers/implementations/kdfs/pbkdf1.c\00", align 1

; Function Attrs: nounwind uwtable
define internal void @kdf_pbkdf1_cleanup(ptr noundef %0) #0 {
  %2 = alloca ptr, align 8
  store ptr %0, ptr %2, align 8, !tbaa !3
  %3 = load ptr, ptr %2, align 8, !tbaa !3
  %4 = getelementptr inbounds nuw %struct.KDF_PBKDF1, ptr %3, i32 0, i32 1
  call void @ossl_prov_digest_reset(ptr noundef %4)
  %5 = load ptr, ptr %2, align 8, !tbaa !3
  %6 = getelementptr inbounds nuw %struct.KDF_PBKDF1, ptr %5, i32 0, i32 4
  %7 = load ptr, ptr %6, align 8, !tbaa !14
  call void @CRYPTO_free(ptr noundef %7, ptr noundef @.str, i32 noundef 114)
  %8 = load ptr, ptr %2, align 8, !tbaa !3
  %9 = getelementptr inbounds nuw %struct.KDF_PBKDF1, ptr %8, i32 0, i32 2
  %10 = load ptr, ptr %9, align 8, !tbaa !16
  %11 = load ptr, ptr %2, align 8, !tbaa !3
  %12 = getelementptr inbounds nuw %struct.KDF_PBKDF1, ptr %11, i32 0, i32 3
  %13 = load i64, ptr %12, align 8, !tbaa !17
  call void @CRYPTO_clear_free(ptr noundef %10, i64 noundef %13, ptr noundef @.str, i32 noundef 115)
  %14 = load ptr, ptr %2, align 8, !tbaa !3
  call void @llvm.memset.p0.i64(ptr align 8 %14, i8 0, i64 72, i1 false)
  ret void
}

; Function Attrs: nounwind uwtable
define internal void @kdf_pbkdf1_free(ptr noundef %0) #0 {
  %2 = alloca ptr, align 8
  %3 = alloca ptr, align 8
  store ptr %0, ptr %2, align 8, !tbaa !3
  call void @llvm.lifetime.start.p0(i64 8, ptr %3) #5
  %4 = load ptr, ptr %2, align 8, !tbaa !3
  store ptr %4, ptr %3, align 8, !tbaa !3
  %5 = load ptr, ptr %3, align 8, !tbaa !3
  %6 = icmp ne ptr %5, null
  br i1 %6, label %7, label %10

7:                                                ; preds = %1
  %8 = load ptr, ptr %3, align 8, !tbaa !3
  call void @kdf_pbkdf1_cleanup(ptr noundef %8)
  %9 = load ptr, ptr %3, align 8, !tbaa !3
  call void @CRYPTO_free(ptr noundef %9, ptr noundef @.str, i32 noundef 125)
  br label %10

10:                                               ; preds = %7, %1
  call void @llvm.lifetime.end.p0(i64 8, ptr %3) #5
  ret void
}