; Function Attrs: nounwind uwtable
define internal void @kdf_pbkdf1_free(ptr noundef %0) #0 {
  %.not = icmp eq ptr %0, null
  br i1 %.not, label %10, label %2

2:                                                ; preds = %1
  %3 = getelementptr inbounds nuw i8, ptr %0, i64 8
  tail call void @ossl_prov_digest_reset(ptr noundef nonnull %3) #6
  %4 = getelementptr inbounds nuw i8, ptr %0, i64 48
  %5 = load ptr, ptr %4, align 8, !tbaa !13
  tail call void @CRYPTO_free(ptr noundef %5, ptr noundef nonnull @.str, i32 noundef 114) #6
  %6 = getelementptr inbounds nuw i8, ptr %0, i64 32
  %7 = load ptr, ptr %6, align 8, !tbaa !15
  %8 = getelementptr inbounds nuw i8, ptr %0, i64 40
  %9 = load i64, ptr %8, align 8, !tbaa !16
  tail call void @CRYPTO_clear_free(ptr noundef %7, i64 noundef %9, ptr noundef nonnull @.str, i32 noundef 115) #6
  tail call void @llvm.memset.p0.i64(ptr noundef nonnull align 8 dereferenceable(72) %0, i8 0, i64 72, i1 false)
  tail call void @CRYPTO_free(ptr noundef nonnull %0, ptr noundef nonnull @.str, i32 noundef 125) #6
  br label %10

10:                                               ; preds = %2, %1
  ret void
}